target datalayout = "e-m:e-p270:32:32-p271:32:32-p272:64:64-i64:64-i128:128-f80:128-n8:16:32:64-S128"
target triple = "x86_64-pc-linux-gnu"

%struct.lexbor_array_obj_t = type { ptr, i64, i64, i64 }

; Function Attrs: nounwind uwtable
define hidden void @lexbor_array_obj_clean(ptr noundef %0) #0 {
  %2 = alloca ptr, align 8
  store ptr %0, ptr %2, align 8
  %3 = load ptr, ptr %2, align 8
  %4 = icmp ne ptr %3, null
  br i1 %4, label %5, label %8

5:                                                ; preds = %1
  %6 = load ptr, ptr %2, align 8
  %7 = getelementptr inbounds %struct.lexbor_array_obj_t, ptr %6, i32 0, i32 2
  store i64 0, ptr %7, align 8
  br label %8

8:                                                ; preds = %5, %1
  ret void
}