; Function Attrs: mustprogress nofree norecurse nosync nounwind willreturn memory(argmem: write) uwtable
define hidden void @lexbor_array_obj_clean(ptr noundef writeonly %0) local_unnamed_addr #2 {
  %.not = icmp eq ptr %0, null
  br i1 %.not, label %4, label %2

2:                                                ; preds = %1
  %3 = getelementptr inbounds i8, ptr %0, i64 16
  store i64 0, ptr %3, align 8
  br label %4

4:                                                ; preds = %2, %1
  ret void
}